target datalayout = "e-m:e-p270:32:32-p271:32:32-p272:64:64-i64:64-i128:128-f80:128-n8:16:32:64-S128"
target triple = "x86_64-pc-linux-gnu"

@Curl_cfree = external global ptr, align 8
@Curl_ccalloc = external global ptr, align 8

; Function Attrs: nounwind uwtable
define dso_local i32 @Curl_cf_http_proxy_insert_after(ptr noundef %0, ptr noundef %1) #0 {
  %3 = alloca ptr, align 8
  %4 = alloca ptr, align 8
  %5 = alloca ptr, align 8
  %6 = alloca ptr, align 8
  %7 = alloca i32, align 4
  store ptr %0, ptr %3, align 8
  store ptr %1, ptr %4, align 8
  store ptr null, ptr %6, align 8
  %8 = load ptr, ptr @Curl_ccalloc, align 8
  %9 = call ptr %8(i64 noundef 1, i64 noundef 8)
  store ptr %9, ptr %6, align 8
  %10 = load ptr, ptr %6, align 8
  %11 = icmp ne ptr %10, null
  br i1 %11, label %13, label %12

12:                                               ; preds = %2
  store i32 27, ptr %7, align 4
  br label %22

13:                                               ; preds = %2
  %14 = load ptr, ptr %6, align 8
  %15 = call i32 @Curl_cf_create(ptr noundef %5, ptr noundef @Curl_cft_http_proxy, ptr noundef %14)
  store i32 %15, ptr %7, align 4
  %16 = load i32, ptr %7, align 4
  %17 = icmp ne i32 %16, 0
  br i1 %17, label %18, label %19

18:                                               ; preds = %13
  br label %22

19:                                               ; preds = %13
  store ptr null, ptr %6, align 8
  %20 = load ptr, ptr %3, align 8
  %21 = load ptr, ptr %5, align 8
  call void @Curl_conn_cf_insert_after(ptr noundef %20, ptr noundef %21)
  br label %22

22:                                               ; preds = %19, %18, %12
  %23 = load ptr, ptr @Curl_cfree, align 8
  %24 = load ptr, ptr %6, align 8
  call void %23(ptr noundef %24)
  %25 = load i32, ptr %7, align 4
  ret i32 %25
}