; Function Attrs: nounwind uwtable
define dso_local i32 @Curl_cf_http_proxy_insert_after(ptr noundef %0, ptr noundef readnone captures(none) %1) local_unnamed_addr #2 {
  %3 = alloca ptr, align 8
  %4 = load ptr, ptr @Curl_ccalloc, align 8
  %5 = tail call ptr %4(i64 noundef 1, i64 noundef 8) #5
  %.not = icmp eq ptr %5, null
  br i1 %.not, label %10, label %6

6:                                                ; preds = %2
  %7 = call i32 @Curl_cf_create(ptr noundef nonnull %3, ptr noundef nonnull @Curl_cft_http_proxy, ptr noundef nonnull %5) #5
  %.not9 = icmp eq i32 %7, 0
  br i1 %.not9, label %8, label %10

8:                                                ; preds = %6
  %9 = load ptr, ptr %3, align 8
  call void @Curl_conn_cf_insert_after(ptr noundef %0, ptr noundef %9) #5
  br label %10

10:                                               ; preds = %2, %6, %8
  %.05 = phi ptr [ %5, %6 ], [ null, %8 ], [ null, %2 ]
  %.0 = phi i32 [ %7, %6 ], [ 0, %8 ], [ 27, %2 ]
  %11 = load ptr, ptr @Curl_cfree, align 8
  call void %11(ptr noundef %.05) #5
  ret i32 %.0
}